; Function Attrs: nounwind sspstrong uwtable
define internal i64 @ifaddr_dstaddr(i64 noundef %0) #0 {
  %2 = tail call ptr @rb_check_typeddata(i64 noundef %0, ptr noundef nonnull @ifaddr_type) #7
  %.not.i.i = icmp eq ptr %2, null
  br i1 %.not.i.i, label %3, label %get_ifaddrs.exit

3:                                                ; preds = %1
  %4 = load i64, ptr @rb_eTypeError, align 8, !tbaa !6
  tail call void (i64, ptr, ...) @rb_raise(i64 noundef %4, ptr noundef nonnull @.str.16) #8
  unreachable

get_ifaddrs.exit:                                 ; preds = %1
  %5 = getelementptr inbounds nuw i8, ptr %2, i64 8
  %6 = load ptr, ptr %5, align 8, !tbaa !10
  %7 = getelementptr inbounds nuw i8, ptr %6, i64 16
  %8 = load i32, ptr %7, align 8, !tbaa !19
  %9 = and i32 %8, 16
  %.not = icmp eq i32 %9, 0
  br i1 %.not, label %16, label %10

10:                                               ; preds = %get_ifaddrs.exit
  %11 = getelementptr inbounds nuw i8, ptr %6, i64 40
  %12 = load ptr, ptr %11, align 8, !tbaa !22
  %.not6 = icmp eq ptr %12, null
  br i1 %.not6, label %16, label %13

13:                                               ; preds = %10
  %14 = tail call i32 @rsock_sockaddr_len(ptr noundef nonnull %12) #7
  %15 = tail call i64 @rsock_sockaddr_obj(ptr noundef nonnull %12, i32 noundef %14) #7
  br label %16

16:                                               ; preds = %get_ifaddrs.exit, %10, %13
  %.0 = phi i64 [ %15, %13 ], [ 4, %10 ], [ 4, %get_ifaddrs.exit ]
  ret i64 %.0
}